target datalayout = "e-m:e-p270:32:32-p271:32:32-p272:64:64-i64:64-i128:128-f80:128-n8:16:32:64-S128"
target triple = "x86_64-pc-linux-gnu"

%class.AdaptiveWeightedAverage = type { float, i32, i32, i8, float }

; Function Attrs: mustprogress nounwind uwtable
define linkonce_odr hidden noundef float @_ZN23AdaptiveWeightedAverage7exp_avgEffj(float noundef %0, float noundef %1, i32 noundef %2) #1 comdat align 2 {
  %4 = alloca float, align 4
  %5 = alloca float, align 4
  %6 = alloca i32, align 4
  store float %0, ptr %4, align 4
  store float %1, ptr %5, align 4
  store i32 %2, ptr %6, align 4
  %7 = load i32, ptr %6, align 4
  %8 = uitofp i32 %7 to float
  %9 = fsub float 1.000000e+02, %8
  %10 = load float, ptr %4, align 4
  %11 = fmul float %9, %10
  %12 = fdiv float %11, 1.000000e+02
  %13 = load i32, ptr %6, align 4
  %14 = uitofp i32 %13 to float
  %15 = load float, ptr %5, align 4
  %16 = fmul float %14, %15
  %17 = fdiv float %16, 1.000000e+02
  %18 = fadd float %12, %17
  ret float %18
}

; Function Attrs: mustprogress nounwind uwtable
define linkonce_odr hidden noundef i32 @_Z4MAX2IjET_S0_S0_(i32 noundef %0, i32 noundef %1) #1 comdat {
  %3 = alloca i32, align 4
  %4 = alloca i32, align 4
  store i32 %0, ptr %3, align 4
  store i32 %1, ptr %4, align 4
  %5 = load i32, ptr %3, align 4
  %6 = load i32, ptr %4, align 4
  %7 = icmp ugt i32 %5, %6
  br i1 %7, label %8, label %10

8:                                                ; preds = %2
  %9 = load i32, ptr %3, align 4
  br label %12

10:                                               ; preds = %2
  %11 = load i32, ptr %4, align 4
  br label %12

12:                                               ; preds = %10, %8
  %13 = phi i32 [ %9, %8 ], [ %11, %10 ]
  ret i32 %13
}

; Function Attrs: mustprogress nounwind uwtable
define linkonce_odr hidden noundef i32 @_ZNK23AdaptiveWeightedAverage6weightEv(ptr noundef nonnull align 4 dereferenceable(20) %0) #1 comdat align 2 {
  %2 = alloca ptr, align 8
  store ptr %0, ptr %2, align 8
  %3 = load ptr, ptr %2, align 8
  %4 = getelementptr inbounds %class.AdaptiveWeightedAverage, ptr %3, i32 0, i32 2
  %5 = load i32, ptr %4, align 4
  ret i32 %5
}

; Function Attrs: mustprogress nounwind uwtable
define linkonce_odr hidden noundef i32 @_ZNK23AdaptiveWeightedAverage5countEv(ptr noundef nonnull align 4 dereferenceable(20) %0) #1 comdat align 2 {
  %2 = alloca ptr, align 8
  store ptr %0, ptr %2, align 8
  %3 = load ptr, ptr %2, align 8
  %4 = getelementptr inbounds %class.AdaptiveWeightedAverage, ptr %3, i32 0, i32 1
  %5 = load i32, ptr %4, align 4
  ret i32 %5
}

; Function Attrs: mustprogress nounwind uwtable
define linkonce_odr hidden noundef zeroext i1 @_ZNK23AdaptiveWeightedAverage6is_oldEv(ptr noundef nonnull align 4 dereferenceable(20) %0) #1 comdat align 2 {
  %2 = alloca ptr, align 8
  store ptr %0, ptr %2, align 8
  %3 = load ptr, ptr %2, align 8
  %4 = getelementptr inbounds %class.AdaptiveWeightedAverage, ptr %3, i32 0, i32 3
  %5 = load i8, ptr %4, align 4
  %6 = trunc i8 %5 to i1
  ret i1 %6
}

; Function Attrs: mustprogress nounwind uwtable
define linkonce_odr hidden void @_ZN23AdaptiveWeightedAverage11set_averageEf(ptr noundef nonnull align 4 dereferenceable(20) %0, float noundef %1) #1 comdat align 2 {
  %3 = alloca ptr, align 8
  %4 = alloca float, align 4
  store ptr %0, ptr %3, align 8
  store float %1, ptr %4, align 4
  %5 = load ptr, ptr %3, align 8
  %6 = load float, ptr %4, align 4
  %7 = getelementptr inbounds %class.AdaptiveWeightedAverage, ptr %5, i32 0, i32 0
  store float %6, ptr %7, align 4
  ret void
}

; Function Attrs: mustprogress nounwind uwtable
define hidden noundef float @_ZN23AdaptiveWeightedAverage24compute_adaptive_averageEff(ptr noundef nonnull align 4 dereferenceable(20) %0, float noundef %1, float noundef %2) #1 align 2 {
  %4 = alloca ptr, align 8
  %5 = alloca float, align 4
  %6 = alloca float, align 4
  %7 = alloca i32, align 4
  %8 = alloca i32, align 4
  %9 = alloca float, align 4
  store ptr %0, ptr %4, align 8
  store float %1, ptr %5, align 4
  store float %2, ptr %6, align 4
  %10 = load ptr, ptr %4, align 8
  store i32 0, ptr %7, align 4
  %11 = call noundef zeroext i1 @_ZNK23AdaptiveWeightedAverage6is_oldEv(ptr noundef nonnull align 4 dereferenceable(20) %10)
  br i1 %11, label %15, label %12

12:                                               ; preds = %3
  %13 = call noundef i32 @_ZNK23AdaptiveWeightedAverage5countEv(ptr noundef nonnull align 4 dereferenceable(20) %10)
  %14 = udiv i32 100, %13
  store i32 %14, ptr %7, align 4
  br label %15

15:                                               ; preds = %12, %3
  %16 = call noundef i32 @_ZNK23AdaptiveWeightedAverage6weightEv(ptr noundef nonnull align 4 dereferenceable(20) %10)
  %17 = load i32, ptr %7, align 4
  %18 = call noundef i32 @_Z4MAX2IjET_S0_S0_(i32 noundef %16, i32 noundef %17)
  store i32 %18, ptr %8, align 4
  %19 = load float, ptr %6, align 4
  %20 = load float, ptr %5, align 4
  %21 = load i32, ptr %8, align 4
  %22 = call noundef float @_ZN23AdaptiveWeightedAverage7exp_avgEffj(float noundef %19, float noundef %20, i32 noundef %21)
  store float %22, ptr %9, align 4
  %23 = load float, ptr %9, align 4
  ret float %23
}

; Function Attrs: mustprogress nounwind uwtable
define linkonce_odr hidden noundef float @_ZNK23AdaptiveWeightedAverage7averageEv(ptr noundef nonnull align 4 dereferenceable(20) %0) #1 comdat align 2 {
  %2 = alloca ptr, align 8
  store ptr %0, ptr %2, align 8
  %3 = load ptr, ptr %2, align 8
  %4 = getelementptr inbounds %class.AdaptiveWeightedAverage, ptr %3, i32 0, i32 0
  %5 = load float, ptr %4, align 4
  ret float %5
}

; Function Attrs: mustprogress nounwind uwtable
define linkonce_odr hidden void @_ZN23AdaptiveWeightedAverage15increment_countEv(ptr noundef nonnull align 4 dereferenceable(20) %0) #1 comdat align 2 {
  %2 = alloca ptr, align 8
  store ptr %0, ptr %2, align 8
  %3 = load ptr, ptr %2, align 8
  %4 = getelementptr inbounds %class.AdaptiveWeightedAverage, ptr %3, i32 0, i32 1
  %5 = load i32, ptr %4, align 4
  %6 = add i32 %5, 1
  store i32 %6, ptr %4, align 4
  %7 = getelementptr inbounds %class.AdaptiveWeightedAverage, ptr %3, i32 0, i32 3
  %8 = load i8, ptr %7, align 4
  %9 = trunc i8 %8 to i1
  br i1 %9, label %16, label %10

10:                                               ; preds = %1
  %11 = getelementptr inbounds %class.AdaptiveWeightedAverage, ptr %3, i32 0, i32 1
  %12 = load i32, ptr %11, align 4
  %13 = icmp ugt i32 %12, 100
  br i1 %13, label %14, label %16

14:                                               ; preds = %10
  %15 = getelementptr inbounds %class.AdaptiveWeightedAverage, ptr %3, i32 0, i32 3
  store i8 1, ptr %15, align 4
  br label %16

16:                                               ; preds = %14, %10, %1
  ret void
}

; Function Attrs: mustprogress nounwind uwtable
define hidden void @_ZN23AdaptiveWeightedAverage6sampleEf(ptr noundef nonnull align 4 dereferenceable(20) %0, float noundef %1) #1 align 2 {
  %3 = alloca ptr, align 8
  %4 = alloca float, align 4
  %5 = alloca float, align 4
  store ptr %0, ptr %3, align 8
  store float %1, ptr %4, align 4
  %6 = load ptr, ptr %3, align 8
  call void @_ZN23AdaptiveWeightedAverage15increment_countEv(ptr noundef nonnull align 4 dereferenceable(20) %6)
  %7 = load float, ptr %4, align 4
  %8 = call noundef float @_ZNK23AdaptiveWeightedAverage7averageEv(ptr noundef nonnull align 4 dereferenceable(20) %6)
  %9 = call noundef float @_ZN23AdaptiveWeightedAverage24compute_adaptive_averageEff(ptr noundef nonnull align 4 dereferenceable(20) %6, float noundef %7, float noundef %8)
  store float %9, ptr %5, align 4
  %10 = load float, ptr %5, align 4
  call void @_ZN23AdaptiveWeightedAverage11set_averageEf(ptr noundef nonnull align 4 dereferenceable(20) %6, float noundef %10)
  %11 = load float, ptr %4, align 4
  %12 = getelementptr inbounds %class.AdaptiveWeightedAverage, ptr %6, i32 0, i32 4
  store float %11, ptr %12, align 4
  ret void
}