; Function Attrs: mustprogress nofree norecurse nosync nounwind willreturn memory(argmem: readwrite) uwtable
define hidden void @_ZN23AdaptiveWeightedAverage6sampleEf(ptr nocapture noundef nonnull align 4 dereferenceable(20) %0, float noundef %1) local_unnamed_addr #1 align 2 {
  %3 = getelementptr inbounds i8, ptr %0, i64 4
  %4 = load i32, ptr %3, align 4
  %5 = add i32 %4, 1
  store i32 %5, ptr %3, align 4
  %6 = getelementptr inbounds i8, ptr %0, i64 12
  %7 = load i8, ptr %6, align 4
  %8 = trunc i8 %7 to i1
  %9 = icmp ult i32 %5, 101
  %or.cond.not.i = select i1 %8, i1 true, i1 %9
  br i1 %or.cond.not.i, label %_ZN23AdaptiveWeightedAverage15increment_countEv.exit, label %_ZN23AdaptiveWeightedAverage15increment_countEv.exit.thread

_ZN23AdaptiveWeightedAverage15increment_countEv.exit.thread: ; preds = %2
  store i8 1, ptr %6, align 4
  %10 = load float, ptr %0, align 4
  br label %_ZN23AdaptiveWeightedAverage24compute_adaptive_averageEff.exit

_ZN23AdaptiveWeightedAverage15increment_countEv.exit: ; preds = %2
  %11 = load float, ptr %0, align 4
  %12 = trunc i8 %7 to i1
  br i1 %12, label %_ZN23AdaptiveWeightedAverage24compute_adaptive_averageEff.exit, label %13

13:                                               ; preds = %_ZN23AdaptiveWeightedAverage15increment_countEv.exit
  %14 = udiv i32 100, %5
  br label %_ZN23AdaptiveWeightedAverage24compute_adaptive_averageEff.exit

_ZN23AdaptiveWeightedAverage24compute_adaptive_averageEff.exit: ; preds = %_ZN23AdaptiveWeightedAverage15increment_countEv.exit.thread, %_ZN23AdaptiveWeightedAverage15increment_countEv.exit, %13
  %15 = phi float [ %11, %_ZN23AdaptiveWeightedAverage15increment_countEv.exit ], [ %11, %13 ], [ %10, %_ZN23AdaptiveWeightedAverage15increment_countEv.exit.thread ]
  %.0.i = phi i32 [ 0, %_ZN23AdaptiveWeightedAverage15increment_countEv.exit ], [ %14, %13 ], [ 0, %_ZN23AdaptiveWeightedAverage15increment_countEv.exit.thread ]
  %16 = getelementptr inbounds i8, ptr %0, i64 8
  %17 = load i32, ptr %16, align 4
  %18 = tail call noundef i32 @llvm.umax.i32(i32 %17, i32 %.0.i)
  %19 = uitofp i32 %18 to float
  %20 = fsub float 1.000000e+02, %19
  %21 = fmul float %15, %20
  %22 = fdiv float %21, 1.000000e+02
  %23 = fmul float %19, %1
  %24 = fdiv float %23, 1.000000e+02
  %25 = fadd float %24, %22
  store float %25, ptr %0, align 4
  %26 = getelementptr inbounds i8, ptr %0, i64 16
  store float %1, ptr %26, align 4
  ret void
}